; Function Attrs: nounwind uwtable
define dso_local range(i64 0, 2) i64 @tsquery_le(ptr noundef readonly captures(none) %0) local_unnamed_addr #2 {
  %2 = getelementptr inbounds nuw i8, ptr %0, i64 32
  %3 = load i64, ptr %2, align 8
  %4 = inttoptr i64 %3 to ptr
  %5 = tail call ptr @pg_detoast_datum_copy(ptr noundef %4) #9
  %6 = getelementptr inbounds nuw i8, ptr %0, i64 48
  %7 = load i64, ptr %6, align 8
  %8 = inttoptr i64 %7 to ptr
  %9 = tail call ptr @pg_detoast_datum_copy(ptr noundef %8) #9
  %10 = getelementptr inbounds nuw i8, ptr %5, i64 4
  %11 = load i32, ptr %10, align 4
  %12 = getelementptr inbounds nuw i8, ptr %9, i64 4
  %13 = load i32, ptr %12, align 4
  %.not.i = icmp eq i32 %11, %13
  br i1 %.not.i, label %16, label %14

14:                                               ; preds = %1
  %15 = icmp slt i32 %11, %13
  br label %CompareTSQ.exit

16:                                               ; preds = %1
  %17 = load i32, ptr %5, align 4
  %18 = lshr i32 %17, 2
  %19 = load i32, ptr %9, align 4
  %20 = lshr i32 %19, 2
  %.not24.i = icmp eq i32 %18, %20
  br i1 %.not24.i, label %23, label %21

21:                                               ; preds = %16
  %22 = icmp samesign ult i32 %18, %20
  br label %CompareTSQ.exit

23:                                               ; preds = %16
  %.not25.i = icmp eq i32 %11, 0
  br i1 %.not25.i, label %CompareTSQ.exit, label %24

24:                                               ; preds = %23
  %25 = getelementptr inbounds nuw i8, ptr %5, i64 8
  %26 = sext i32 %11 to i64
  %27 = mul nsw i64 %26, 12
  %28 = getelementptr inbounds nuw i8, ptr %25, i64 %27
  %29 = tail call ptr @QT2QTN(ptr noundef nonnull %25, ptr noundef nonnull %28) #9
  %30 = getelementptr inbounds nuw i8, ptr %9, i64 8
  %31 = load i32, ptr %12, align 4
  %32 = sext i32 %31 to i64
  %33 = mul nsw i64 %32, 12
  %34 = getelementptr inbounds nuw i8, ptr %30, i64 %33
  %35 = tail call ptr @QT2QTN(ptr noundef nonnull %30, ptr noundef nonnull %34) #9
  %36 = tail call i32 @QTNodeCompare(ptr noundef %29, ptr noundef %35) #9
  tail call void @QTNFree(ptr noundef %29) #9
  tail call void @QTNFree(ptr noundef %35) #9
  %37 = icmp slt i32 %36, 1
  br label %CompareTSQ.exit

CompareTSQ.exit:                                  ; preds = %14, %21, %23, %24
  %.0.i = phi i1 [ %15, %14 ], [ %22, %21 ], [ %37, %24 ], [ true, %23 ]
  %38 = load i64, ptr %2, align 8
  %39 = inttoptr i64 %38 to ptr
  %.not = icmp eq ptr %5, %39
  br i1 %.not, label %41, label %40

40:                                               ; preds = %CompareTSQ.exit
  tail call void @pfree(ptr noundef nonnull %5) #9
  br label %41

41:                                               ; preds = %CompareTSQ.exit, %40
  %42 = load i64, ptr %6, align 8
  %43 = inttoptr i64 %42 to ptr
  %.not11 = icmp eq ptr %9, %43
  br i1 %.not11, label %45, label %44

44:                                               ; preds = %41
  tail call void @pfree(ptr noundef nonnull %9) #9
  br label %45

45:                                               ; preds = %44, %41
  %46 = zext i1 %.0.i to i64
  ret i64 %46
}